; Function Attrs: nounwind uwtable
define internal i32 @comparetup_datum(ptr noundef readonly captures(none) %0, ptr noundef readonly captures(none) %1, ptr noundef readonly captures(none) %2) #0 {
  %4 = getelementptr inbounds nuw i8, ptr %0, i64 8
  %5 = load i64, ptr %4, align 8
  %6 = getelementptr inbounds nuw i8, ptr %0, i64 16
  %7 = load i8, ptr %6, align 8, !range !4, !noundef !5
  %8 = trunc nuw i8 %7 to i1
  %9 = getelementptr inbounds nuw i8, ptr %1, i64 8
  %10 = load i64, ptr %9, align 8
  %11 = getelementptr inbounds nuw i8, ptr %1, i64 16
  %12 = load i8, ptr %11, align 8, !range !4, !noundef !5
  %13 = trunc nuw i8 %12 to i1
  %14 = getelementptr inbounds nuw i8, ptr %2, i64 80
  %15 = load ptr, ptr %14, align 8
  br i1 %8, label %16, label %21

16:                                               ; preds = %3
  br i1 %13, label %ApplySortComparator.exit.thread15, label %17

17:                                               ; preds = %16
  %18 = getelementptr inbounds nuw i8, ptr %15, i64 13
  %19 = load i8, ptr %18, align 1, !range !4, !noundef !5
  %20 = trunc nuw i8 %19 to i1
  %..i = select i1 %20, i32 -1, i32 1
  br label %comparetup_datum_tiebreak.exit

21:                                               ; preds = %3
  br i1 %13, label %22, label %26

22:                                               ; preds = %21
  %23 = getelementptr inbounds nuw i8, ptr %15, i64 13
  %24 = load i8, ptr %23, align 1, !range !4, !noundef !5
  %25 = trunc nuw i8 %24 to i1
  %.12.i = select i1 %25, i32 1, i32 -1
  br label %comparetup_datum_tiebreak.exit

26:                                               ; preds = %21
  %27 = getelementptr inbounds nuw i8, ptr %15, i64 24
  %28 = load ptr, ptr %27, align 8
  %29 = tail call i32 %28(i64 noundef %5, i64 noundef %10, ptr noundef %15) #12
  %30 = getelementptr inbounds nuw i8, ptr %15, i64 12
  %31 = load i8, ptr %30, align 4, !range !4, !noundef !5
  %32 = trunc nuw i8 %31 to i1
  br i1 %32, label %33, label %ApplySortComparator.exit

33:                                               ; preds = %26
  %34 = icmp slt i32 %29, 0
  %35 = sub nsw i32 0, %29
  br i1 %34, label %comparetup_datum_tiebreak.exit, label %ApplySortComparator.exit

ApplySortComparator.exit:                         ; preds = %33, %26
  %.0.i = phi i32 [ %35, %33 ], [ %29, %26 ]
  %.not = icmp eq i32 %.0.i, 0
  br i1 %.not, label %ApplySortComparator.exit.ApplySortComparator.exit.thread15_crit_edge, label %comparetup_datum_tiebreak.exit

ApplySortComparator.exit.ApplySortComparator.exit.thread15_crit_edge: ; preds = %ApplySortComparator.exit
  %.pre = load ptr, ptr %14, align 8
  br label %ApplySortComparator.exit.thread15

ApplySortComparator.exit.thread15:                ; preds = %ApplySortComparator.exit.ApplySortComparator.exit.thread15_crit_edge, %16
  %36 = phi ptr [ %.pre, %ApplySortComparator.exit.ApplySortComparator.exit.thread15_crit_edge ], [ %15, %16 ]
  %37 = getelementptr inbounds nuw i8, ptr %36, i64 40
  %38 = load ptr, ptr %37, align 8
  %.not.i = icmp eq ptr %38, null
  br i1 %.not.i, label %comparetup_datum_tiebreak.exit, label %39

39:                                               ; preds = %ApplySortComparator.exit.thread15
  %40 = load ptr, ptr %0, align 8
  %41 = ptrtoint ptr %40 to i64
  %42 = load i8, ptr %6, align 8, !range !4, !noundef !5
  %43 = trunc nuw i8 %42 to i1
  %44 = load ptr, ptr %1, align 8
  %45 = ptrtoint ptr %44 to i64
  %46 = load i8, ptr %11, align 8, !range !4, !noundef !5
  %47 = trunc nuw i8 %46 to i1
  br i1 %43, label %48, label %53

48:                                               ; preds = %39
  br i1 %47, label %comparetup_datum_tiebreak.exit, label %49

49:                                               ; preds = %48
  %50 = getelementptr inbounds nuw i8, ptr %36, i64 13
  %51 = load i8, ptr %50, align 1, !range !4, !noundef !5
  %52 = trunc nuw i8 %51 to i1
  %..i.i = select i1 %52, i32 -1, i32 1
  br label %comparetup_datum_tiebreak.exit

53:                                               ; preds = %39
  br i1 %47, label %54, label %58

54:                                               ; preds = %53
  %55 = getelementptr inbounds nuw i8, ptr %36, i64 13
  %56 = load i8, ptr %55, align 1, !range !4, !noundef !5
  %57 = trunc nuw i8 %56 to i1
  %.12.i.i = select i1 %57, i32 1, i32 -1
  br label %comparetup_datum_tiebreak.exit

58:                                               ; preds = %53
  %59 = getelementptr inbounds nuw i8, ptr %36, i64 56
  %60 = load ptr, ptr %59, align 8
  %61 = tail call i32 %60(i64 noundef %41, i64 noundef %45, ptr noundef nonnull %36) #12
  %62 = getelementptr inbounds nuw i8, ptr %36, i64 12
  %63 = load i8, ptr %62, align 4, !range !4, !noundef !5
  %64 = trunc nuw i8 %63 to i1
  br i1 %64, label %65, label %comparetup_datum_tiebreak.exit

65:                                               ; preds = %58
  %66 = icmp slt i32 %61, 0
  %67 = sub i32 0, %61
  %68 = select i1 %66, i32 1, i32 %67
  br label %comparetup_datum_tiebreak.exit

comparetup_datum_tiebreak.exit:                   ; preds = %33, %22, %17, %65, %58, %54, %49, %48, %ApplySortComparator.exit.thread15, %ApplySortComparator.exit
  %.0 = phi i32 [ %.0.i, %ApplySortComparator.exit ], [ 0, %ApplySortComparator.exit.thread15 ], [ %68, %65 ], [ %61, %58 ], [ 0, %48 ], [ %..i.i, %49 ], [ %.12.i.i, %54 ], [ %.12.i, %22 ], [ %..i, %17 ], [ 1, %33 ]
  ret i32 %.0
}